target datalayout = "e-m:e-p270:32:32-p271:32:32-p272:64:64-i64:64-i128:128-f80:128-n8:16:32:64-S128"
target triple = "x86_64-pc-linux-gnu"

%"class.llvm::ModuleDebugInfoPrinterPass" = type { %"class.llvm::DebugInfoFinder", ptr }
%"class.llvm::DebugInfoFinder" = type { %"class.llvm::SmallVector", %"class.llvm::SmallVector.0", %"class.llvm::SmallVector.5", %"class.llvm::SmallVector.10", %"class.llvm::SmallVector.15", %"class.llvm::SmallPtrSet" }
%"class.llvm::SmallVector" = type { %"class.llvm::SmallVectorImpl", %"struct.llvm::SmallVectorStorage" }
%"class.llvm::SmallVectorImpl" = type { %"class.llvm::SmallVectorTemplateBase" }
%"class.llvm::SmallVectorTemplateBase" = type { %"class.llvm::SmallVectorTemplateCommon" }
%"class.llvm::SmallVectorTemplateCommon" = type { %"class.llvm::SmallVectorBase" }
%"class.llvm::SmallVectorBase" = type { ptr, i32, i32 }
%"struct.llvm::SmallVectorStorage" = type { [64 x i8] }
%"class.llvm::SmallVector.0" = type { %"class.llvm::SmallVectorImpl.1", %"struct.llvm::SmallVectorStorage.4" }
%"class.llvm::SmallVectorImpl.1" = type { %"class.llvm::SmallVectorTemplateBase.2" }
%"class.llvm::SmallVectorTemplateBase.2" = type { %"class.llvm::SmallVectorTemplateCommon.3" }
%"class.llvm::SmallVectorTemplateCommon.3" = type { %"class.llvm::SmallVectorBase" }
%"struct.llvm::SmallVectorStorage.4" = type { [64 x i8] }
%"class.llvm::SmallVector.5" = type { %"class.llvm::SmallVectorImpl.6", %"struct.llvm::SmallVectorStorage.9" }
%"class.llvm::SmallVectorImpl.6" = type { %"class.llvm::SmallVectorTemplateBase.7" }
%"class.llvm::SmallVectorTemplateBase.7" = type { %"class.llvm::SmallVectorTemplateCommon.8" }
%"class.llvm::SmallVectorTemplateCommon.8" = type { %"class.llvm::SmallVectorBase" }
%"struct.llvm::SmallVectorStorage.9" = type { [64 x i8] }
%"class.llvm::SmallVector.10" = type { %"class.llvm::SmallVectorImpl.11", %"struct.llvm::SmallVectorStorage.14" }
%"class.llvm::SmallVectorImpl.11" = type { %"class.llvm::SmallVectorTemplateBase.12" }
%"class.llvm::SmallVectorTemplateBase.12" = type { %"class.llvm::SmallVectorTemplateCommon.13" }
%"class.llvm::SmallVectorTemplateCommon.13" = type { %"class.llvm::SmallVectorBase" }
%"struct.llvm::SmallVectorStorage.14" = type { [64 x i8] }
%"class.llvm::SmallVector.15" = type { %"class.llvm::SmallVectorImpl.16", %"struct.llvm::SmallVectorStorage.19" }
%"class.llvm::SmallVectorImpl.16" = type { %"class.llvm::SmallVectorTemplateBase.17" }
%"class.llvm::SmallVectorTemplateBase.17" = type { %"class.llvm::SmallVectorTemplateCommon.18" }
%"class.llvm::SmallVectorTemplateCommon.18" = type { %"class.llvm::SmallVectorBase" }
%"struct.llvm::SmallVectorStorage.19" = type { [64 x i8] }
%"class.llvm::SmallPtrSet" = type { %"class.llvm::SmallPtrSetImpl.base", [32 x ptr] }
%"class.llvm::SmallPtrSetImpl.base" = type { %"class.llvm::SmallPtrSetImplBase.base" }
%"class.llvm::SmallPtrSetImplBase.base" = type <{ ptr, ptr, i32, i32, i32 }>
%"class.llvm::SmallPtrSetImplBase" = type <{ ptr, ptr, i32, i32, i32, [4 x i8] }>

; Function Attrs: mustprogress nounwind uwtable
define linkonce_odr hidden noundef ptr @_ZNK4llvm25SmallVectorTemplateCommonIPNS_7DIScopeEvE10getFirstElEv(ptr noundef nonnull align 8 dereferenceable(16) %0) #0 comdat align 2 {
  %2 = alloca ptr, align 8
  store ptr %0, ptr %2, align 8
  %3 = load ptr, ptr %2, align 8
  %4 = getelementptr inbounds i8, ptr %3, i64 16
  ret ptr %4
}

; Function Attrs: mustprogress nounwind uwtable
define linkonce_odr hidden noundef ptr @_ZNK4llvm25SmallVectorTemplateCommonIPNS_6DITypeEvE10getFirstElEv(ptr noundef nonnull align 8 dereferenceable(16) %0) #0 comdat align 2 {
  %2 = alloca ptr, align 8
  store ptr %0, ptr %2, align 8
  %3 = load ptr, ptr %2, align 8
  %4 = getelementptr inbounds i8, ptr %3, i64 16
  ret ptr %4
}

; Function Attrs: mustprogress nounwind uwtable
define linkonce_odr hidden noundef ptr @_ZNK4llvm25SmallVectorTemplateCommonIPNS_26DIGlobalVariableExpressionEvE10getFirstElEv(ptr noundef nonnull align 8 dereferenceable(16) %0) #0 comdat align 2 {
  %2 = alloca ptr, align 8
  store ptr %0, ptr %2, align 8
  %3 = load ptr, ptr %2, align 8
  %4 = getelementptr inbounds i8, ptr %3, i64 16
  ret ptr %4
}

; Function Attrs: mustprogress nounwind uwtable
define linkonce_odr hidden noundef ptr @_ZNK4llvm25SmallVectorTemplateCommonIPNS_12DISubprogramEvE10getFirstElEv(ptr noundef nonnull align 8 dereferenceable(16) %0) #0 comdat align 2 {
  %2 = alloca ptr, align 8
  store ptr %0, ptr %2, align 8
  %3 = load ptr, ptr %2, align 8
  %4 = getelementptr inbounds i8, ptr %3, i64 16
  ret ptr %4
}

; Function Attrs: mustprogress nounwind uwtable
define linkonce_odr hidden noundef ptr @_ZNK4llvm25SmallVectorTemplateCommonIPNS_13DICompileUnitEvE10getFirstElEv(ptr noundef nonnull align 8 dereferenceable(16) %0) #0 comdat align 2 {
  %2 = alloca ptr, align 8
  store ptr %0, ptr %2, align 8
  %3 = load ptr, ptr %2, align 8
  %4 = getelementptr inbounds i8, ptr %3, i64 16
  ret ptr %4
}

; Function Attrs: mustprogress nounwind uwtable
define linkonce_odr hidden void @_ZN4llvm25SmallVectorTemplateCommonIPNS_7DIScopeEvEC2Em(ptr noundef nonnull align 8 dereferenceable(16) %0, i64 noundef %1) unnamed_addr #0 comdat align 2 {
  %3 = alloca ptr, align 8
  %4 = alloca i64, align 8
  store ptr %0, ptr %3, align 8
  store i64 %1, ptr %4, align 8
  %5 = load ptr, ptr %3, align 8
  %6 = call noundef ptr @_ZNK4llvm25SmallVectorTemplateCommonIPNS_7DIScopeEvE10getFirstElEv(ptr noundef nonnull align 8 dereferenceable(16) %5)
  %7 = load i64, ptr %4, align 8
  call void @_ZN4llvm15SmallVectorBaseIjEC2EPvm(ptr noundef nonnull align 8 dereferenceable(16) %5, ptr noundef %6, i64 noundef %7)
  ret void
}

; Function Attrs: mustprogress nounwind uwtable
define linkonce_odr hidden void @_ZN4llvm25SmallVectorTemplateCommonIPNS_6DITypeEvEC2Em(ptr noundef nonnull align 8 dereferenceable(16) %0, i64 noundef %1) unnamed_addr #0 comdat align 2 {
  %3 = alloca ptr, align 8
  %4 = alloca i64, align 8
  store ptr %0, ptr %3, align 8
  store i64 %1, ptr %4, align 8
  %5 = load ptr, ptr %3, align 8
  %6 = call noundef ptr @_ZNK4llvm25SmallVectorTemplateCommonIPNS_6DITypeEvE10getFirstElEv(ptr noundef nonnull align 8 dereferenceable(16) %5)
  %7 = load i64, ptr %4, align 8
  call void @_ZN4llvm15SmallVectorBaseIjEC2EPvm(ptr noundef nonnull align 8 dereferenceable(16) %5, ptr noundef %6, i64 noundef %7)
  ret void
}

; Function Attrs: mustprogress nounwind uwtable
define linkonce_odr hidden void @_ZN4llvm25SmallVectorTemplateCommonIPNS_26DIGlobalVariableExpressionEvEC2Em(ptr noundef nonnull align 8 dereferenceable(16) %0, i64 noundef %1) unnamed_addr #0 comdat align 2 {
  %3 = alloca ptr, align 8
  %4 = alloca i64, align 8
  store ptr %0, ptr %3, align 8
  store i64 %1, ptr %4, align 8
  %5 = load ptr, ptr %3, align 8
  %6 = call noundef ptr @_ZNK4llvm25SmallVectorTemplateCommonIPNS_26DIGlobalVariableExpressionEvE10getFirstElEv(ptr noundef nonnull align 8 dereferenceable(16) %5)
  %7 = load i64, ptr %4, align 8
  call void @_ZN4llvm15SmallVectorBaseIjEC2EPvm(ptr noundef nonnull align 8 dereferenceable(16) %5, ptr noundef %6, i64 noundef %7)
  ret void
}

; Function Attrs: mustprogress nounwind uwtable
define linkonce_odr hidden void @_ZN4llvm25SmallVectorTemplateCommonIPNS_12DISubprogramEvEC2Em(ptr noundef nonnull align 8 dereferenceable(16) %0, i64 noundef %1) unnamed_addr #0 comdat align 2 {
  %3 = alloca ptr, align 8
  %4 = alloca i64, align 8
  store ptr %0, ptr %3, align 8
  store i64 %1, ptr %4, align 8
  %5 = load ptr, ptr %3, align 8
  %6 = call noundef ptr @_ZNK4llvm25SmallVectorTemplateCommonIPNS_12DISubprogramEvE10getFirstElEv(ptr noundef nonnull align 8 dereferenceable(16) %5)
  %7 = load i64, ptr %4, align 8
  call void @_ZN4llvm15SmallVectorBaseIjEC2EPvm(ptr noundef nonnull align 8 dereferenceable(16) %5, ptr noundef %6, i64 noundef %7)
  ret void
}

; Function Attrs: mustprogress nounwind uwtable
define linkonce_odr hidden void @_ZN4llvm25SmallVectorTemplateCommonIPNS_13DICompileUnitEvEC2Em(ptr noundef nonnull align 8 dereferenceable(16) %0, i64 noundef %1) unnamed_addr #0 comdat align 2 {
  %3 = alloca ptr, align 8
  %4 = alloca i64, align 8
  store ptr %0, ptr %3, align 8
  store i64 %1, ptr %4, align 8
  %5 = load ptr, ptr %3, align 8
  %6 = call noundef ptr @_ZNK4llvm25SmallVectorTemplateCommonIPNS_13DICompileUnitEvE10getFirstElEv(ptr noundef nonnull align 8 dereferenceable(16) %5)
  %7 = load i64, ptr %4, align 8
  call void @_ZN4llvm15SmallVectorBaseIjEC2EPvm(ptr noundef nonnull align 8 dereferenceable(16) %5, ptr noundef %6, i64 noundef %7)
  ret void
}

; Function Attrs: mustprogress nounwind uwtable
define linkonce_odr hidden void @_ZN4llvm19SmallPtrSetImplBaseC2EPPKvj(ptr noundef nonnull align 8 dereferenceable(28) %0, ptr noundef %1, i32 noundef %2) unnamed_addr #0 comdat align 2 {
  %4 = alloca ptr, align 8
  %5 = alloca ptr, align 8
  %6 = alloca i32, align 4
  store ptr %0, ptr %4, align 8
  store ptr %1, ptr %5, align 8
  store i32 %2, ptr %6, align 4
  %7 = load ptr, ptr %4, align 8
  %8 = getelementptr inbounds nuw %"class.llvm::SmallPtrSetImplBase", ptr %7, i32 0, i32 0
  %9 = load ptr, ptr %5, align 8
  store ptr %9, ptr %8, align 8
  %10 = getelementptr inbounds nuw %"class.llvm::SmallPtrSetImplBase", ptr %7, i32 0, i32 1
  %11 = load ptr, ptr %5, align 8
  store ptr %11, ptr %10, align 8
  %12 = getelementptr inbounds nuw %"class.llvm::SmallPtrSetImplBase", ptr %7, i32 0, i32 2
  %13 = load i32, ptr %6, align 4
  store i32 %13, ptr %12, align 8
  %14 = getelementptr inbounds nuw %"class.llvm::SmallPtrSetImplBase", ptr %7, i32 0, i32 3
  store i32 0, ptr %14, align 4
  %15 = getelementptr inbounds nuw %"class.llvm::SmallPtrSetImplBase", ptr %7, i32 0, i32 4
  store i32 0, ptr %15, align 8
  ret void
}

; Function Attrs: mustprogress nounwind uwtable
define linkonce_odr hidden void @_ZN4llvm23SmallVectorTemplateBaseIPNS_7DIScopeELb1EEC2Em(ptr noundef nonnull align 8 dereferenceable(16) %0, i64 noundef %1) unnamed_addr #0 comdat align 2 {
  %3 = alloca ptr, align 8
  %4 = alloca i64, align 8
  store ptr %0, ptr %3, align 8
  store i64 %1, ptr %4, align 8
  %5 = load ptr, ptr %3, align 8
  %6 = load i64, ptr %4, align 8
  call void @_ZN4llvm25SmallVectorTemplateCommonIPNS_7DIScopeEvEC2Em(ptr noundef nonnull align 8 dereferenceable(16) %5, i64 noundef %6)
  ret void
}

; Function Attrs: mustprogress nounwind uwtable
define linkonce_odr hidden void @_ZN4llvm23SmallVectorTemplateBaseIPNS_6DITypeELb1EEC2Em(ptr noundef nonnull align 8 dereferenceable(16) %0, i64 noundef %1) unnamed_addr #0 comdat align 2 {
  %3 = alloca ptr, align 8
  %4 = alloca i64, align 8
  store ptr %0, ptr %3, align 8
  store i64 %1, ptr %4, align 8
  %5 = load ptr, ptr %3, align 8
  %6 = load i64, ptr %4, align 8
  call void @_ZN4llvm25SmallVectorTemplateCommonIPNS_6DITypeEvEC2Em(ptr noundef nonnull align 8 dereferenceable(16) %5, i64 noundef %6)
  ret void
}

; Function Attrs: mustprogress nounwind uwtable
define linkonce_odr hidden void @_ZN4llvm23SmallVectorTemplateBaseIPNS_26DIGlobalVariableExpressionELb1EEC2Em(ptr noundef nonnull align 8 dereferenceable(16) %0, i64 noundef %1) unnamed_addr #0 comdat align 2 {
  %3 = alloca ptr, align 8
  %4 = alloca i64, align 8
  store ptr %0, ptr %3, align 8
  store i64 %1, ptr %4, align 8
  %5 = load ptr, ptr %3, align 8
  %6 = load i64, ptr %4, align 8
  call void @_ZN4llvm25SmallVectorTemplateCommonIPNS_26DIGlobalVariableExpressionEvEC2Em(ptr noundef nonnull align 8 dereferenceable(16) %5, i64 noundef %6)
  ret void
}

; Function Attrs: mustprogress nounwind uwtable
define linkonce_odr hidden void @_ZN4llvm23SmallVectorTemplateBaseIPNS_12DISubprogramELb1EEC2Em(ptr noundef nonnull align 8 dereferenceable(16) %0, i64 noundef %1) unnamed_addr #0 comdat align 2 {
  %3 = alloca ptr, align 8
  %4 = alloca i64, align 8
  store ptr %0, ptr %3, align 8
  store i64 %1, ptr %4, align 8
  %5 = load ptr, ptr %3, align 8
  %6 = load i64, ptr %4, align 8
  call void @_ZN4llvm25SmallVectorTemplateCommonIPNS_12DISubprogramEvEC2Em(ptr noundef nonnull align 8 dereferenceable(16) %5, i64 noundef %6)
  ret void
}

; Function Attrs: mustprogress nounwind uwtable
define linkonce_odr hidden void @_ZN4llvm23SmallVectorTemplateBaseIPNS_13DICompileUnitELb1EEC2Em(ptr noundef nonnull align 8 dereferenceable(16) %0, i64 noundef %1) unnamed_addr #0 comdat align 2 {
  %3 = alloca ptr, align 8
  %4 = alloca i64, align 8
  store ptr %0, ptr %3, align 8
  store i64 %1, ptr %4, align 8
  %5 = load ptr, ptr %3, align 8
  %6 = load i64, ptr %4, align 8
  call void @_ZN4llvm25SmallVectorTemplateCommonIPNS_13DICompileUnitEvEC2Em(ptr noundef nonnull align 8 dereferenceable(16) %5, i64 noundef %6)
  ret void
}

; Function Attrs: mustprogress nounwind uwtable
define linkonce_odr hidden void @_ZN4llvm15SmallPtrSetImplIPKNS_6MDNodeEECI2NS_19SmallPtrSetImplBaseEEPPKvj(ptr noundef nonnull align 8 dereferenceable(28) %0, ptr noundef %1, i32 noundef %2) unnamed_addr #0 comdat align 2 {
  %4 = alloca ptr, align 8
  %5 = alloca ptr, align 8
  %6 = alloca i32, align 4
  store ptr %0, ptr %4, align 8
  store ptr %1, ptr %5, align 8
  store i32 %2, ptr %6, align 4
  %7 = load ptr, ptr %4, align 8
  %8 = load ptr, ptr %5, align 8
  %9 = load i32, ptr %6, align 4
  call void @_ZN4llvm19SmallPtrSetImplBaseC2EPPKvj(ptr noundef nonnull align 8 dereferenceable(28) %7, ptr noundef %8, i32 noundef %9)
  ret void
}

; Function Attrs: mustprogress nounwind uwtable
define linkonce_odr hidden void @_ZN4llvm15SmallVectorImplIPNS_7DIScopeEEC2Ej(ptr noundef nonnull align 8 dereferenceable(16) %0, i32 noundef %1) unnamed_addr #0 comdat align 2 {
  %3 = alloca ptr, align 8
  %4 = alloca i32, align 4
  store ptr %0, ptr %3, align 8
  store i32 %1, ptr %4, align 4
  %5 = load ptr, ptr %3, align 8
  %6 = load i32, ptr %4, align 4
  %7 = zext i32 %6 to i64
  call void @_ZN4llvm23SmallVectorTemplateBaseIPNS_7DIScopeELb1EEC2Em(ptr noundef nonnull align 8 dereferenceable(16) %5, i64 noundef %7)
  ret void
}

; Function Attrs: mustprogress nounwind uwtable
define linkonce_odr hidden void @_ZN4llvm15SmallVectorImplIPNS_6DITypeEEC2Ej(ptr noundef nonnull align 8 dereferenceable(16) %0, i32 noundef %1) unnamed_addr #0 comdat align 2 {
  %3 = alloca ptr, align 8
  %4 = alloca i32, align 4
  store ptr %0, ptr %3, align 8
  store i32 %1, ptr %4, align 4
  %5 = load ptr, ptr %3, align 8
  %6 = load i32, ptr %4, align 4
  %7 = zext i32 %6 to i64
  call void @_ZN4llvm23SmallVectorTemplateBaseIPNS_6DITypeELb1EEC2Em(ptr noundef nonnull align 8 dereferenceable(16) %5, i64 noundef %7)
  ret void
}

; Function Attrs: mustprogress nounwind uwtable
define linkonce_odr hidden void @_ZN4llvm15SmallVectorImplIPNS_26DIGlobalVariableExpressionEEC2Ej(ptr noundef nonnull align 8 dereferenceable(16) %0, i32 noundef %1) unnamed_addr #0 comdat align 2 {
  %3 = alloca ptr, align 8
  %4 = alloca i32, align 4
  store ptr %0, ptr %3, align 8
  store i32 %1, ptr %4, align 4
  %5 = load ptr, ptr %3, align 8
  %6 = load i32, ptr %4, align 4
  %7 = zext i32 %6 to i64
  call void @_ZN4llvm23SmallVectorTemplateBaseIPNS_26DIGlobalVariableExpressionELb1EEC2Em(ptr noundef nonnull align 8 dereferenceable(16) %5, i64 noundef %7)
  ret void
}

; Function Attrs: mustprogress nounwind uwtable
define linkonce_odr hidden void @_ZN4llvm15SmallVectorImplIPNS_12DISubprogramEEC2Ej(ptr noundef nonnull align 8 dereferenceable(16) %0, i32 noundef %1) unnamed_addr #0 comdat align 2 {
  %3 = alloca ptr, align 8
  %4 = alloca i32, align 4
  store ptr %0, ptr %3, align 8
  store i32 %1, ptr %4, align 4
  %5 = load ptr, ptr %3, align 8
  %6 = load i32, ptr %4, align 4
  %7 = zext i32 %6 to i64
  call void @_ZN4llvm23SmallVectorTemplateBaseIPNS_12DISubprogramELb1EEC2Em(ptr noundef nonnull align 8 dereferenceable(16) %5, i64 noundef %7)
  ret void
}

; Function Attrs: mustprogress nounwind uwtable
define linkonce_odr hidden void @_ZN4llvm15SmallVectorImplIPNS_13DICompileUnitEEC2Ej(ptr noundef nonnull align 8 dereferenceable(16) %0, i32 noundef %1) unnamed_addr #0 comdat align 2 {
  %3 = alloca ptr, align 8
  %4 = alloca i32, align 4
  store ptr %0, ptr %3, align 8
  store i32 %1, ptr %4, align 4
  %5 = load ptr, ptr %3, align 8
  %6 = load i32, ptr %4, align 4
  %7 = zext i32 %6 to i64
  call void @_ZN4llvm23SmallVectorTemplateBaseIPNS_13DICompileUnitELb1EEC2Em(ptr noundef nonnull align 8 dereferenceable(16) %5, i64 noundef %7)
  ret void
}

; Function Attrs: mustprogress nounwind uwtable
define linkonce_odr hidden void @_ZN4llvm11SmallPtrSetIPKNS_6MDNodeELj32EEC2Ev(ptr noundef nonnull align 8 dereferenceable(288) %0) unnamed_addr #0 comdat align 2 {
  %2 = alloca ptr, align 8
  store ptr %0, ptr %2, align 8
  %3 = load ptr, ptr %2, align 8
  %4 = getelementptr inbounds nuw %"class.llvm::SmallPtrSet", ptr %3, i32 0, i32 1
  %5 = getelementptr inbounds [32 x ptr], ptr %4, i64 0, i64 0
  call void @_ZN4llvm15SmallPtrSetImplIPKNS_6MDNodeEECI2NS_19SmallPtrSetImplBaseEEPPKvj(ptr noundef nonnull align 8 dereferenceable(28) %3, ptr noundef %5, i32 noundef 32)
  ret void
}

; Function Attrs: mustprogress nounwind uwtable
define linkonce_odr hidden void @_ZN4llvm11SmallVectorIPNS_7DIScopeELj8EEC2Ev(ptr noundef nonnull align 8 dereferenceable(80) %0) unnamed_addr #0 comdat align 2 {
  %2 = alloca ptr, align 8
  store ptr %0, ptr %2, align 8
  %3 = load ptr, ptr %2, align 8
  call void @_ZN4llvm15SmallVectorImplIPNS_7DIScopeEEC2Ej(ptr noundef nonnull align 8 dereferenceable(16) %3, i32 noundef 8)
  ret void
}

; Function Attrs: mustprogress nounwind uwtable
define linkonce_odr hidden void @_ZN4llvm11SmallVectorIPNS_6DITypeELj8EEC2Ev(ptr noundef nonnull align 8 dereferenceable(80) %0) unnamed_addr #0 comdat align 2 {
  %2 = alloca ptr, align 8
  store ptr %0, ptr %2, align 8
  %3 = load ptr, ptr %2, align 8
  call void @_ZN4llvm15SmallVectorImplIPNS_6DITypeEEC2Ej(ptr noundef nonnull align 8 dereferenceable(16) %3, i32 noundef 8)
  ret void
}

; Function Attrs: mustprogress nounwind uwtable
define linkonce_odr hidden void @_ZN4llvm11SmallVectorIPNS_26DIGlobalVariableExpressionELj8EEC2Ev(ptr noundef nonnull align 8 dereferenceable(80) %0) unnamed_addr #0 comdat align 2 {
  %2 = alloca ptr, align 8
  store ptr %0, ptr %2, align 8
  %3 = load ptr, ptr %2, align 8
  call void @_ZN4llvm15SmallVectorImplIPNS_26DIGlobalVariableExpressionEEC2Ej(ptr noundef nonnull align 8 dereferenceable(16) %3, i32 noundef 8)
  ret void
}

; Function Attrs: mustprogress nounwind uwtable
define linkonce_odr hidden void @_ZN4llvm11SmallVectorIPNS_12DISubprogramELj8EEC2Ev(ptr noundef nonnull align 8 dereferenceable(80) %0) unnamed_addr #0 comdat align 2 {
  %2 = alloca ptr, align 8
  store ptr %0, ptr %2, align 8
  %3 = load ptr, ptr %2, align 8
  call void @_ZN4llvm15SmallVectorImplIPNS_12DISubprogramEEC2Ej(ptr noundef nonnull align 8 dereferenceable(16) %3, i32 noundef 8)
  ret void
}

; Function Attrs: mustprogress nounwind uwtable
define linkonce_odr hidden void @_ZN4llvm11SmallVectorIPNS_13DICompileUnitELj8EEC2Ev(ptr noundef nonnull align 8 dereferenceable(80) %0) unnamed_addr #0 comdat align 2 {
  %2 = alloca ptr, align 8
  store ptr %0, ptr %2, align 8
  %3 = load ptr, ptr %2, align 8
  call void @_ZN4llvm15SmallVectorImplIPNS_13DICompileUnitEEC2Ej(ptr noundef nonnull align 8 dereferenceable(16) %3, i32 noundef 8)
  ret void
}

; Function Attrs: mustprogress nounwind uwtable
define linkonce_odr hidden void @_ZN4llvm15DebugInfoFinderC2Ev(ptr noundef nonnull align 8 dereferenceable(688) %0) unnamed_addr #0 comdat align 2 {
  %2 = alloca ptr, align 8
  store ptr %0, ptr %2, align 8
  %3 = load ptr, ptr %2, align 8
  %4 = getelementptr inbounds nuw %"class.llvm::DebugInfoFinder", ptr %3, i32 0, i32 0
  call void @_ZN4llvm11SmallVectorIPNS_13DICompileUnitELj8EEC2Ev(ptr noundef nonnull align 8 dereferenceable(80) %4)
  %5 = getelementptr inbounds nuw %"class.llvm::DebugInfoFinder", ptr %3, i32 0, i32 1
  call void @_ZN4llvm11SmallVectorIPNS_12DISubprogramELj8EEC2Ev(ptr noundef nonnull align 8 dereferenceable(80) %5)
  %6 = getelementptr inbounds nuw %"class.llvm::DebugInfoFinder", ptr %3, i32 0, i32 2
  call void @_ZN4llvm11SmallVectorIPNS_26DIGlobalVariableExpressionELj8EEC2Ev(ptr noundef nonnull align 8 dereferenceable(80) %6)
  %7 = getelementptr inbounds nuw %"class.llvm::DebugInfoFinder", ptr %3, i32 0, i32 3
  call void @_ZN4llvm11SmallVectorIPNS_6DITypeELj8EEC2Ev(ptr noundef nonnull align 8 dereferenceable(80) %7)
  %8 = getelementptr inbounds nuw %"class.llvm::DebugInfoFinder", ptr %3, i32 0, i32 4
  call void @_ZN4llvm11SmallVectorIPNS_7DIScopeELj8EEC2Ev(ptr noundef nonnull align 8 dereferenceable(80) %8)
  %9 = getelementptr inbounds nuw %"class.llvm::DebugInfoFinder", ptr %3, i32 0, i32 5
  call void @_ZN4llvm11SmallPtrSetIPKNS_6MDNodeELj32EEC2Ev(ptr noundef nonnull align 8 dereferenceable(288) %9)
  ret void
}

; Function Attrs: mustprogress nounwind uwtable
define dso_local void @_ZN4llvm26ModuleDebugInfoPrinterPassC2ERNS_11raw_ostreamE(ptr noundef nonnull align 8 dereferenceable(696) %0, ptr noundef nonnull align 8 dereferenceable(48) %1) unnamed_addr #0 align 2 {
  %3 = alloca ptr, align 8
  %4 = alloca ptr, align 8
  store ptr %0, ptr %3, align 8
  store ptr %1, ptr %4, align 8
  %5 = load ptr, ptr %3, align 8
  %6 = getelementptr inbounds nuw %"class.llvm::ModuleDebugInfoPrinterPass", ptr %5, i32 0, i32 0
  call void @_ZN4llvm15DebugInfoFinderC2Ev(ptr noundef nonnull align 8 dereferenceable(688) %6)
  %7 = getelementptr inbounds nuw %"class.llvm::ModuleDebugInfoPrinterPass", ptr %5, i32 0, i32 1
  %8 = load ptr, ptr %4, align 8
  store ptr %8, ptr %7, align 8
  ret void
}