; Function Attrs: mustprogress nounwind uwtable
define dso_local void @_ZN4llvm26ModuleDebugInfoPrinterPassC2ERNS_11raw_ostreamE(ptr noundef nonnull align 8 dereferenceable(696) %0, ptr noundef nonnull align 8 dereferenceable(48) %1) unnamed_addr #0 align 2 {
  %3 = getelementptr inbounds nuw i8, ptr %0, i64 16
  tail call void @_ZN4llvm15SmallVectorBaseIjEC2EPvm(ptr noundef nonnull align 8 dereferenceable(688) %0, ptr noundef nonnull %3, i64 noundef 8) #3
  %4 = getelementptr inbounds nuw i8, ptr %0, i64 80
  %5 = getelementptr inbounds nuw i8, ptr %0, i64 96
  tail call void @_ZN4llvm15SmallVectorBaseIjEC2EPvm(ptr noundef nonnull align 8 dereferenceable(80) %4, ptr noundef nonnull %5, i64 noundef 8) #3
  %6 = getelementptr inbounds nuw i8, ptr %0, i64 160
  %7 = getelementptr inbounds nuw i8, ptr %0, i64 176
  tail call void @_ZN4llvm15SmallVectorBaseIjEC2EPvm(ptr noundef nonnull align 8 dereferenceable(80) %6, ptr noundef nonnull %7, i64 noundef 8) #3
  %8 = getelementptr inbounds nuw i8, ptr %0, i64 240
  %9 = getelementptr inbounds nuw i8, ptr %0, i64 256
  tail call void @_ZN4llvm15SmallVectorBaseIjEC2EPvm(ptr noundef nonnull align 8 dereferenceable(80) %8, ptr noundef nonnull %9, i64 noundef 8) #3
  %10 = getelementptr inbounds nuw i8, ptr %0, i64 320
  %11 = getelementptr inbounds nuw i8, ptr %0, i64 336
  tail call void @_ZN4llvm15SmallVectorBaseIjEC2EPvm(ptr noundef nonnull align 8 dereferenceable(80) %10, ptr noundef nonnull %11, i64 noundef 8) #3
  %12 = getelementptr inbounds nuw i8, ptr %0, i64 400
  %13 = getelementptr inbounds nuw i8, ptr %0, i64 432
  store ptr %13, ptr %12, align 8
  %14 = getelementptr inbounds nuw i8, ptr %0, i64 408
  store ptr %13, ptr %14, align 8
  %15 = getelementptr inbounds nuw i8, ptr %0, i64 416
  store i32 32, ptr %15, align 8
  %16 = getelementptr inbounds nuw i8, ptr %0, i64 420
  store i32 0, ptr %16, align 4
  %17 = getelementptr inbounds nuw i8, ptr %0, i64 424
  store i32 0, ptr %17, align 8
  %18 = getelementptr inbounds nuw i8, ptr %0, i64 688
  store ptr %1, ptr %18, align 8
  ret void
}